; Function Attrs: mustprogress uwtable
define noundef i32 @_ZN3zmq12v1_decoder_t11flags_readyEPKh(ptr noundef nonnull align 8 dereferenceable(144) %0, ptr readnone captures(none) %1) #0 align 2 {
  %3 = getelementptr inbounds nuw i8, ptr %0, i64 72
  %4 = getelementptr inbounds nuw i8, ptr %0, i64 64
  %5 = load i8, ptr %4, align 8, !tbaa !28
  %6 = and i8 %5, 1
  tail call void @_ZN3zmq5msg_t9set_flagsEh(ptr noundef nonnull align 8 dereferenceable(64) %3, i8 noundef zeroext %6)
  %7 = tail call noundef ptr @_ZN3zmq5msg_t4dataEv(ptr noundef nonnull align 8 dereferenceable(64) %3)
  %8 = tail call noundef i64 @_ZNK3zmq5msg_t4sizeEv(ptr noundef nonnull align 8 dereferenceable(64) %3)
  %9 = getelementptr inbounds nuw i8, ptr %0, i64 24
  store ptr %7, ptr %9, align 8, !tbaa !25
  %10 = getelementptr inbounds nuw i8, ptr %0, i64 32
  store i64 %8, ptr %10, align 8, !tbaa !26
  %11 = getelementptr inbounds nuw i8, ptr %0, i64 8
  store i64 ptrtoint (ptr @_ZN3zmq12v1_decoder_t13message_readyEPKh to i64), ptr %11, align 8, !tbaa !27
  %.repack8.i = getelementptr inbounds nuw i8, ptr %0, i64 16
  store i64 0, ptr %.repack8.i, align 8, !tbaa !27
  ret i32 0
}